target datalayout = "e-m:e-p270:32:32-p271:32:32-p272:64:64-i64:64-i128:128-f80:128-n8:16:32:64-S128"
target triple = "x86_64-pc-linux-gnu"

%struct.loopargs_st = type { ptr, ptr, ptr, ptr, ptr, ptr, ptr, [16 x i8], i64, i64, i64, [7 x ptr], [7 x ptr], [7 x ptr], [7 x ptr], [2 x ptr], [2 x ptr], [22 x ptr], [22 x ptr], [24 x ptr], [2 x ptr], [2 x ptr], [1 x ptr], [1 x ptr], [1 x ptr], ptr, ptr, [24 x i64], [5 x ptr], ptr, ptr, ptr, ptr, [111 x ptr], [111 x ptr], [111 x ptr], [111 x i64], [111 x i64], [111 x ptr], [111 x ptr], [111 x ptr], [111 x ptr], [111 x ptr], [111 x ptr], [111 x i64], [111 x i64], [111 x ptr] }

@bio_err = external global ptr, align 8
@decrypt = internal global i32 0, align 4
@testmode = internal global i32 0, align 4
@lengths = internal global ptr @lengths_list, align 8
@testnum = internal global i32 0, align 4
@iv = internal global [32 x i8] zeroinitializer, align 16
@run = internal global i32 0, align 4
@.str.445 = private unnamed_addr constant [30 x i8] c"Error finalizing cipher loop\0A\00", align 1

; Function Attrs: nounwind uwtable
define internal i32 @EVP_Update_loop(ptr noundef %0) #0 {
  %2 = alloca ptr, align 8
  %3 = alloca ptr, align 8
  %4 = alloca ptr, align 8
  %5 = alloca ptr, align 8
  %6 = alloca i32, align 4
  %7 = alloca i32, align 4
  %8 = alloca i32, align 4
  store ptr %0, ptr %2, align 8, !tbaa !115
  call void @llvm.lifetime.start.p0(i64 8, ptr %3) #11
  %9 = load ptr, ptr %2, align 8, !tbaa !115
  %10 = load ptr, ptr %9, align 8, !tbaa !37
  store ptr %10, ptr %3, align 8, !tbaa !37
  call void @llvm.lifetime.start.p0(i64 8, ptr %4) #11
  %11 = load ptr, ptr %3, align 8, !tbaa !37
  %12 = getelementptr inbounds nuw %struct.loopargs_st, ptr %11, i32 0, i32 2
  %13 = load ptr, ptr %12, align 8, !tbaa !92
  store ptr %13, ptr %4, align 8, !tbaa !39
  call void @llvm.lifetime.start.p0(i64 8, ptr %5) #11
  %14 = load ptr, ptr %3, align 8, !tbaa !37
  %15 = getelementptr inbounds nuw %struct.loopargs_st, ptr %14, i32 0, i32 31
  %16 = load ptr, ptr %15, align 8, !tbaa !117
  store ptr %16, ptr %5, align 8, !tbaa !219
  call void @llvm.lifetime.start.p0(i64 4, ptr %6) #11
  call void @llvm.lifetime.start.p0(i64 4, ptr %7) #11
  call void @llvm.lifetime.start.p0(i64 4, ptr %8) #11
  %17 = load i32, ptr @decrypt, align 4, !tbaa !4
  %18 = icmp ne i32 %17, 0
  br i1 %18, label %19, label %51

19:                                               ; preds = %1
  store i32 0, ptr %7, align 4, !tbaa !4
  br label %20

20:                                               ; preds = %47, %19
  %21 = load volatile i32, ptr @run, align 4, !tbaa !4
  %22 = icmp ne i32 %21, 0
  br i1 %22, label %23, label %29

23:                                               ; preds = %20
  %24 = load i32, ptr %7, align 4, !tbaa !4
  %25 = load i32, ptr @testmode, align 4, !tbaa !4
  %26 = icmp ne i32 %25, 0
  %27 = select i1 %26, i32 1, i32 2147483647
  %28 = icmp slt i32 %24, %27
  br label %29

29:                                               ; preds = %23, %20
  %30 = phi i1 [ false, %20 ], [ %28, %23 ]
  br i1 %30, label %31, label %50

31:                                               ; preds = %29
  %32 = load ptr, ptr %5, align 8, !tbaa !219
  %33 = load ptr, ptr %4, align 8, !tbaa !39
  %34 = load ptr, ptr %4, align 8, !tbaa !39
  %35 = load ptr, ptr @lengths, align 8, !tbaa !66
  %36 = load i32, ptr @testnum, align 4, !tbaa !4
  %37 = zext i32 %36 to i64
  %38 = getelementptr inbounds nuw i32, ptr %35, i64 %37
  %39 = load i32, ptr %38, align 4, !tbaa !4
  %40 = call i32 @EVP_DecryptUpdate(ptr noundef %32, ptr noundef %33, ptr noundef %6, ptr noundef %34, i32 noundef %39)
  store i32 %40, ptr %8, align 4, !tbaa !4
  %41 = load i32, ptr %8, align 4, !tbaa !4
  %42 = icmp ne i32 %41, 1
  br i1 %42, label %43, label %46

43:                                               ; preds = %31
  %44 = load ptr, ptr %5, align 8, !tbaa !219
  %45 = call i32 @EVP_CipherInit_ex(ptr noundef %44, ptr noundef null, ptr noundef null, ptr noundef null, ptr noundef @iv, i32 noundef -1)
  store i32 %45, ptr %8, align 4, !tbaa !4
  br label %46

46:                                               ; preds = %43, %31
  br label %47

47:                                               ; preds = %46
  %48 = load i32, ptr %7, align 4, !tbaa !4
  %49 = add nsw i32 %48, 1
  store i32 %49, ptr %7, align 4, !tbaa !4
  br label %20, !llvm.loop !268

50:                                               ; preds = %29
  br label %83

51:                                               ; preds = %1
  store i32 0, ptr %7, align 4, !tbaa !4
  br label %52

52:                                               ; preds = %79, %51
  %53 = load volatile i32, ptr @run, align 4, !tbaa !4
  %54 = icmp ne i32 %53, 0
  br i1 %54, label %55, label %61

55:                                               ; preds = %52
  %56 = load i32, ptr %7, align 4, !tbaa !4
  %57 = load i32, ptr @testmode, align 4, !tbaa !4
  %58 = icmp ne i32 %57, 0
  %59 = select i1 %58, i32 1, i32 2147483647
  %60 = icmp slt i32 %56, %59
  br label %61

61:                                               ; preds = %55, %52
  %62 = phi i1 [ false, %52 ], [ %60, %55 ]
  br i1 %62, label %63, label %82

63:                                               ; preds = %61
  %64 = load ptr, ptr %5, align 8, !tbaa !219
  %65 = load ptr, ptr %4, align 8, !tbaa !39
  %66 = load ptr, ptr %4, align 8, !tbaa !39
  %67 = load ptr, ptr @lengths, align 8, !tbaa !66
  %68 = load i32, ptr @testnum, align 4, !tbaa !4
  %69 = zext i32 %68 to i64
  %70 = getelementptr inbounds nuw i32, ptr %67, i64 %69
  %71 = load i32, ptr %70, align 4, !tbaa !4
  %72 = call i32 @EVP_EncryptUpdate(ptr noundef %64, ptr noundef %65, ptr noundef %6, ptr noundef %66, i32 noundef %71)
  store i32 %72, ptr %8, align 4, !tbaa !4
  %73 = load i32, ptr %8, align 4, !tbaa !4
  %74 = icmp ne i32 %73, 1
  br i1 %74, label %75, label %78

75:                                               ; preds = %63
  %76 = load ptr, ptr %5, align 8, !tbaa !219
  %77 = call i32 @EVP_CipherInit_ex(ptr noundef %76, ptr noundef null, ptr noundef null, ptr noundef null, ptr noundef @iv, i32 noundef -1)
  store i32 %77, ptr %8, align 4, !tbaa !4
  br label %78

78:                                               ; preds = %75, %63
  br label %79

79:                                               ; preds = %78
  %80 = load i32, ptr %7, align 4, !tbaa !4
  %81 = add nsw i32 %80, 1
  store i32 %81, ptr %7, align 4, !tbaa !4
  br label %52, !llvm.loop !269

82:                                               ; preds = %61
  br label %83

83:                                               ; preds = %82, %50
  %84 = load i32, ptr @decrypt, align 4, !tbaa !4
  %85 = icmp ne i32 %84, 0
  br i1 %85, label %86, label %90

86:                                               ; preds = %83
  %87 = load ptr, ptr %5, align 8, !tbaa !219
  %88 = load ptr, ptr %4, align 8, !tbaa !39
  %89 = call i32 @EVP_DecryptFinal_ex(ptr noundef %87, ptr noundef %88, ptr noundef %6)
  store i32 %89, ptr %8, align 4, !tbaa !4
  br label %94

90:                                               ; preds = %83
  %91 = load ptr, ptr %5, align 8, !tbaa !219
  %92 = load ptr, ptr %4, align 8, !tbaa !39
  %93 = call i32 @EVP_EncryptFinal_ex(ptr noundef %91, ptr noundef %92, ptr noundef %6)
  store i32 %93, ptr %8, align 4, !tbaa !4
  br label %94

94:                                               ; preds = %90, %86
  %95 = load i32, ptr %8, align 4, !tbaa !4
  %96 = icmp eq i32 %95, 0
  br i1 %96, label %97, label %100

97:                                               ; preds = %94
  %98 = load ptr, ptr @bio_err, align 8, !tbaa !53
  %99 = call i32 (ptr, ptr, ...) @BIO_printf(ptr noundef %98, ptr noundef @.str.445)
  br label %100

100:                                              ; preds = %97, %94
  %101 = load i32, ptr %7, align 4, !tbaa !4
  call void @llvm.lifetime.end.p0(i64 4, ptr %8) #11
  call void @llvm.lifetime.end.p0(i64 4, ptr %7) #11
  call void @llvm.lifetime.end.p0(i64 4, ptr %6) #11
  call void @llvm.lifetime.end.p0(i64 8, ptr %5) #11
  call void @llvm.lifetime.end.p0(i64 8, ptr %4) #11
  call void @llvm.lifetime.end.p0(i64 8, ptr %3) #11
  ret i32 %101
}