; Function Attrs: nounwind uwtable
define internal i32 @EVP_Update_loop(ptr noundef readonly captures(none) %0) #0 {
  %2 = alloca i32, align 4
  %3 = load ptr, ptr %0, align 8, !tbaa !189
  %4 = getelementptr inbounds nuw i8, ptr %3, i64 16
  %5 = load ptr, ptr %4, align 8, !tbaa !53
  %6 = getelementptr inbounds nuw i8, ptr %3, i64 1216
  %7 = load ptr, ptr %6, align 8, !tbaa !78
  call void @llvm.lifetime.start.p0(i64 4, ptr nonnull %2) #14
  %.b25 = load i1, ptr @decrypt, align 4
  %8 = load volatile i32, ptr @run, align 4, !tbaa !13
  %.not2937 = icmp eq i32 %8, 0
  br i1 %.b25, label %.preheader, label %.preheader31

.preheader31:                                     ; preds = %1
  br i1 %.not2937, label %.critedge.thread49, label %.lr.ph

.preheader:                                       ; preds = %1
  br i1 %.not2937, label %.critedge.thread, label %.lr.ph39

.lr.ph39:                                         ; preds = %.preheader, %20
  %.02438 = phi i32 [ %21, %20 ], [ 0, %.preheader ]
  %.b27 = load i1, ptr @testmode, align 4
  %9 = select i1 %.b27, i32 1, i32 2147483647
  %10 = icmp samesign ult i32 %.02438, %9
  br i1 %10, label %11, label %.critedge

11:                                               ; preds = %.lr.ph39
  %12 = load ptr, ptr @lengths, align 8, !tbaa !26
  %13 = load i32, ptr @testnum, align 4, !tbaa !13
  %14 = zext i32 %13 to i64
  %15 = getelementptr inbounds nuw i32, ptr %12, i64 %14
  %16 = load i32, ptr %15, align 4, !tbaa !13
  %17 = call i32 @EVP_DecryptUpdate(ptr noundef %7, ptr noundef %5, ptr noundef nonnull %2, ptr noundef %5, i32 noundef %16) #14
  %.not30 = icmp eq i32 %17, 1
  br i1 %.not30, label %20, label %18

18:                                               ; preds = %11
  %19 = call i32 @EVP_CipherInit_ex(ptr noundef %7, ptr noundef null, ptr noundef null, ptr noundef null, ptr noundef nonnull @iv, i32 noundef -1) #14
  br label %20

20:                                               ; preds = %11, %18
  %21 = add nuw nsw i32 %.02438, 1
  %22 = load volatile i32, ptr @run, align 4, !tbaa !13
  %.not29 = icmp eq i32 %22, 0
  br i1 %.not29, label %.critedge, label %.lr.ph39, !llvm.loop !215

.lr.ph:                                           ; preds = %.preheader31, %34
  %.234 = phi i32 [ %35, %34 ], [ 0, %.preheader31 ]
  %.b26 = load i1, ptr @testmode, align 4
  %23 = select i1 %.b26, i32 1, i32 2147483647
  %24 = icmp samesign ult i32 %.234, %23
  br i1 %24, label %25, label %.critedge

25:                                               ; preds = %.lr.ph
  %26 = load ptr, ptr @lengths, align 8, !tbaa !26
  %27 = load i32, ptr @testnum, align 4, !tbaa !13
  %28 = zext i32 %27 to i64
  %29 = getelementptr inbounds nuw i32, ptr %26, i64 %28
  %30 = load i32, ptr %29, align 4, !tbaa !13
  %31 = call i32 @EVP_EncryptUpdate(ptr noundef %7, ptr noundef %5, ptr noundef nonnull %2, ptr noundef %5, i32 noundef %30) #14
  %.not28 = icmp eq i32 %31, 1
  br i1 %.not28, label %34, label %32

32:                                               ; preds = %25
  %33 = call i32 @EVP_CipherInit_ex(ptr noundef %7, ptr noundef null, ptr noundef null, ptr noundef null, ptr noundef nonnull @iv, i32 noundef -1) #14
  br label %34

34:                                               ; preds = %25, %32
  %35 = add nuw nsw i32 %.234, 1
  %36 = load volatile i32, ptr @run, align 4, !tbaa !13
  %.not = icmp eq i32 %36, 0
  br i1 %.not, label %.critedge, label %.lr.ph, !llvm.loop !216

.critedge:                                        ; preds = %34, %.lr.ph, %20, %.lr.ph39
  %.1.ph = phi i32 [ %.02438, %.lr.ph39 ], [ %21, %20 ], [ %.234, %.lr.ph ], [ %35, %34 ]
  %.b.pr = load i1, ptr @decrypt, align 4
  br i1 %.b.pr, label %.critedge.thread, label %.critedge.thread49

.critedge.thread:                                 ; preds = %.preheader, %.critedge
  %.148 = phi i32 [ %.1.ph, %.critedge ], [ 0, %.preheader ]
  %37 = call i32 @EVP_DecryptFinal_ex(ptr noundef %7, ptr noundef %5, ptr noundef nonnull %2) #14
  br label %39

.critedge.thread49:                               ; preds = %.preheader31, %.critedge
  %.152 = phi i32 [ %.1.ph, %.critedge ], [ 0, %.preheader31 ]
  %38 = call i32 @EVP_EncryptFinal_ex(ptr noundef %7, ptr noundef %5, ptr noundef nonnull %2) #14
  br label %39

39:                                               ; preds = %.critedge.thread49, %.critedge.thread
  %.147 = phi i32 [ %.148, %.critedge.thread ], [ %.152, %.critedge.thread49 ]
  %.0 = phi i32 [ %37, %.critedge.thread ], [ %38, %.critedge.thread49 ]
  %40 = icmp eq i32 %.0, 0
  br i1 %40, label %41, label %44

41:                                               ; preds = %39
  %42 = load ptr, ptr @bio_err, align 8, !tbaa !19
  %43 = call i32 (ptr, ptr, ...) @BIO_printf(ptr noundef %42, ptr noundef nonnull @.str.445) #14
  br label %44

44:                                               ; preds = %41, %39
  call void @llvm.lifetime.end.p0(i64 4, ptr nonnull %2) #14
  ret i32 %.147
}